target datalayout = "e-m:e-p270:32:32-p271:32:32-p272:64:64-i64:64-i128:128-f80:128-n8:16:32:64-S128"
target triple = "x86_64-pc-linux-gnu"

%struct.strbuf = type { i64, i64, ptr }
%struct.diff_filespec = type { %struct.object_id, ptr, ptr, ptr, i64, i32, i32, i16, i16, ptr }
%struct.object_id = type { [32 x i8], i32 }

@__const.show_file_mode_name.sb = private unnamed_addr constant %struct.strbuf { i64 0, i64 0, ptr @strbuf_slopbuf }, align 8
@.str.403 = private unnamed_addr constant [15 x i8] c" %s mode %06o \00", align 1
@.str.404 = private unnamed_addr constant [5 x i8] c" %s \00", align 1

; Function Attrs: inlinehint nounwind uwtable
define internal i64 @strbuf_avail(ptr noundef %0) #2 {
  %2 = alloca ptr, align 8
  store ptr %0, ptr %2, align 8, !tbaa !53
  %3 = load ptr, ptr %2, align 8, !tbaa !53
  %4 = getelementptr inbounds nuw %struct.strbuf, ptr %3, i32 0, i32 0
  %5 = load i64, ptr %4, align 8, !tbaa !408
  %6 = icmp ne i64 %5, 0
  br i1 %6, label %7, label %16

7:                                                ; preds = %1
  %8 = load ptr, ptr %2, align 8, !tbaa !53
  %9 = getelementptr inbounds nuw %struct.strbuf, ptr %8, i32 0, i32 0
  %10 = load i64, ptr %9, align 8, !tbaa !408
  %11 = load ptr, ptr %2, align 8, !tbaa !53
  %12 = getelementptr inbounds nuw %struct.strbuf, ptr %11, i32 0, i32 1
  %13 = load i64, ptr %12, align 8, !tbaa !73
  %14 = sub i64 %10, %13
  %15 = sub i64 %14, 1
  br label %17

16:                                               ; preds = %1
  br label %17

17:                                               ; preds = %16, %7
  %18 = phi i64 [ %15, %7 ], [ 0, %16 ]
  ret i64 %18
}

; Function Attrs: inlinehint nounwind uwtable
define internal void @strbuf_addch(ptr noundef %0, i32 noundef %1) #2 {
  %3 = alloca ptr, align 8
  %4 = alloca i32, align 4
  store ptr %0, ptr %3, align 8, !tbaa !53
  store i32 %1, ptr %4, align 4, !tbaa !16
  %5 = load ptr, ptr %3, align 8, !tbaa !53
  %6 = call i64 @strbuf_avail(ptr noundef %5)
  %7 = icmp ne i64 %6, 0
  br i1 %7, label %10, label %8

8:                                                ; preds = %2
  %9 = load ptr, ptr %3, align 8, !tbaa !53
  call void @strbuf_grow(ptr noundef %9, i64 noundef 1)
  br label %10

10:                                               ; preds = %8, %2
  %11 = load i32, ptr %4, align 4, !tbaa !16
  %12 = trunc i32 %11 to i8
  %13 = load ptr, ptr %3, align 8, !tbaa !53
  %14 = getelementptr inbounds nuw %struct.strbuf, ptr %13, i32 0, i32 2
  %15 = load ptr, ptr %14, align 8, !tbaa !31
  %16 = load ptr, ptr %3, align 8, !tbaa !53
  %17 = getelementptr inbounds nuw %struct.strbuf, ptr %16, i32 0, i32 1
  %18 = load i64, ptr %17, align 8, !tbaa !73
  %19 = add i64 %18, 1
  store i64 %19, ptr %17, align 8, !tbaa !73
  %20 = getelementptr inbounds nuw i8, ptr %15, i64 %18
  store i8 %12, ptr %20, align 1, !tbaa !48
  %21 = load ptr, ptr %3, align 8, !tbaa !53
  %22 = getelementptr inbounds nuw %struct.strbuf, ptr %21, i32 0, i32 2
  %23 = load ptr, ptr %22, align 8, !tbaa !31
  %24 = load ptr, ptr %3, align 8, !tbaa !53
  %25 = getelementptr inbounds nuw %struct.strbuf, ptr %24, i32 0, i32 1
  %26 = load i64, ptr %25, align 8, !tbaa !73
  %27 = getelementptr inbounds nuw i8, ptr %23, i64 %26
  store i8 0, ptr %27, align 1, !tbaa !48
  ret void
}

; Function Attrs: nounwind uwtable
define internal void @show_file_mode_name(ptr noundef %0, ptr noundef %1, ptr noundef %2) #0 {
  %4 = alloca ptr, align 8
  %5 = alloca ptr, align 8
  %6 = alloca ptr, align 8
  %7 = alloca %struct.strbuf, align 8
  store ptr %0, ptr %4, align 8, !tbaa !34
  store ptr %1, ptr %5, align 8, !tbaa !9
  store ptr %2, ptr %6, align 8, !tbaa !88
  call void @llvm.lifetime.start.p0(i64 24, ptr %7) #10
  call void @llvm.memcpy.p0.p0.i64(ptr align 8 %7, ptr align 8 @__const.show_file_mode_name.sb, i64 24, i1 false)
  %8 = load ptr, ptr %6, align 8, !tbaa !88
  %9 = getelementptr inbounds nuw %struct.diff_filespec, ptr %8, i32 0, i32 7
  %10 = load i16, ptr %9, align 8, !tbaa !119
  %11 = icmp ne i16 %10, 0
  br i1 %11, label %12, label %18

12:                                               ; preds = %3
  %13 = load ptr, ptr %5, align 8, !tbaa !9
  %14 = load ptr, ptr %6, align 8, !tbaa !88
  %15 = getelementptr inbounds nuw %struct.diff_filespec, ptr %14, i32 0, i32 7
  %16 = load i16, ptr %15, align 8, !tbaa !119
  %17 = zext i16 %16 to i32
  call void (ptr, ptr, ...) @strbuf_addf(ptr noundef %7, ptr noundef @.str.403, ptr noundef %13, i32 noundef %17)
  br label %20

18:                                               ; preds = %3
  %19 = load ptr, ptr %5, align 8, !tbaa !9
  call void (ptr, ptr, ...) @strbuf_addf(ptr noundef %7, ptr noundef @.str.404, ptr noundef %19)
  br label %20

20:                                               ; preds = %18, %12
  %21 = load ptr, ptr %6, align 8, !tbaa !88
  %22 = getelementptr inbounds nuw %struct.diff_filespec, ptr %21, i32 0, i32 1
  %23 = load ptr, ptr %22, align 8, !tbaa !122
  %24 = call i64 @quote_c_style(ptr noundef %23, ptr noundef %7, ptr noundef null, i32 noundef 0)
  call void @strbuf_addch(ptr noundef %7, i32 noundef 10)
  %25 = load ptr, ptr %4, align 8, !tbaa !34
  %26 = getelementptr inbounds nuw %struct.strbuf, ptr %7, i32 0, i32 2
  %27 = load ptr, ptr %26, align 8, !tbaa !31
  %28 = getelementptr inbounds nuw %struct.strbuf, ptr %7, i32 0, i32 1
  %29 = load i64, ptr %28, align 8, !tbaa !73
  %30 = trunc i64 %29 to i32
  call void @emit_diff_symbol(ptr noundef %25, i32 noundef 11, ptr noundef %27, i32 noundef %30, i32 noundef 0)
  call void @strbuf_release(ptr noundef %7)
  call void @llvm.lifetime.end.p0(i64 24, ptr %7) #10
  ret void
}