; Function Attrs: nounwind uwtable
define internal fastcc void @show_file_mode_name(ptr noundef %0, ptr noundef %1, ptr noundef readonly captures(none) %2) unnamed_addr #0 {
  %4 = alloca %struct.strbuf, align 8
  call void @llvm.lifetime.start.p0(i64 24, ptr nonnull %4) #32
  call void @llvm.memcpy.p0.p0.i64(ptr noundef nonnull align 8 dereferenceable(24) %4, ptr noundef nonnull align 8 dereferenceable(24) @__const.run_textconv.buf, i64 24, i1 false)
  %5 = getelementptr inbounds nuw i8, ptr %2, i64 80
  %6 = load i16, ptr %5, align 8, !tbaa !100
  %.not = icmp eq i16 %6, 0
  br i1 %.not, label %9, label %7

7:                                                ; preds = %3
  %8 = zext i16 %6 to i32
  call void (ptr, ptr, ...) @strbuf_addf(ptr noundef nonnull %4, ptr noundef nonnull @.str.403, ptr noundef %1, i32 noundef %8) #32
  br label %10

9:                                                ; preds = %3
  call void (ptr, ptr, ...) @strbuf_addf(ptr noundef nonnull %4, ptr noundef nonnull @.str.404, ptr noundef %1) #32
  br label %10

10:                                               ; preds = %9, %7
  %11 = getelementptr inbounds nuw i8, ptr %2, i64 40
  %12 = load ptr, ptr %11, align 8, !tbaa !101
  %13 = call i64 @quote_c_style(ptr noundef %12, ptr noundef nonnull %4, ptr noundef null, i32 noundef 0) #32
  %14 = load i64, ptr %4, align 8, !tbaa !64
  %.not.i.i = icmp eq i64 %14, 0
  br i1 %.not.i.i, label %strbuf_avail.exit.thread.i, label %strbuf_avail.exit.i

strbuf_avail.exit.i:                              ; preds = %10
  %15 = getelementptr inbounds nuw i8, ptr %4, i64 8
  %16 = load i64, ptr %15, align 8, !tbaa !65
  %.neg.i = add i64 %16, 1
  %.not.i = icmp eq i64 %14, %.neg.i
  br i1 %.not.i, label %strbuf_avail.exit.thread.i, label %strbuf_addch.exit

strbuf_avail.exit.thread.i:                       ; preds = %strbuf_avail.exit.i, %10
  call void @strbuf_grow(ptr noundef nonnull %4, i64 noundef 1) #32
  %.phi.trans.insert.i = getelementptr inbounds nuw i8, ptr %4, i64 8
  %.pre.i = load i64, ptr %.phi.trans.insert.i, align 8, !tbaa !65
  %.pre7.i = add i64 %.pre.i, 1
  br label %strbuf_addch.exit

strbuf_addch.exit:                                ; preds = %strbuf_avail.exit.i, %strbuf_avail.exit.thread.i
  %.pre-phi.i = phi i64 [ %.pre7.i, %strbuf_avail.exit.thread.i ], [ %.neg.i, %strbuf_avail.exit.i ]
  %17 = phi i64 [ %.pre.i, %strbuf_avail.exit.thread.i ], [ %16, %strbuf_avail.exit.i ]
  %18 = getelementptr inbounds nuw i8, ptr %4, i64 16
  %19 = load ptr, ptr %18, align 8, !tbaa !24
  %20 = getelementptr inbounds nuw i8, ptr %4, i64 8
  store i64 %.pre-phi.i, ptr %20, align 8, !tbaa !65
  %21 = getelementptr inbounds nuw i8, ptr %19, i64 %17
  store i8 10, ptr %21, align 1, !tbaa !38
  %22 = load ptr, ptr %18, align 8, !tbaa !24
  %23 = load i64, ptr %20, align 8, !tbaa !65
  %24 = getelementptr inbounds nuw i8, ptr %22, i64 %23
  store i8 0, ptr %24, align 1, !tbaa !38
  %25 = load ptr, ptr %18, align 8, !tbaa !24
  %26 = load i64, ptr %20, align 8, !tbaa !65
  %27 = trunc i64 %26 to i32
  call fastcc void @emit_diff_symbol(ptr noundef %0, i32 noundef 11, ptr noundef %25, i32 noundef %27, i32 noundef 0)
  call void @strbuf_release(ptr noundef nonnull %4) #32
  call void @llvm.lifetime.end.p0(i64 24, ptr nonnull %4) #32
  ret void
}